target datalayout = "e-m:e-p270:32:32-p271:32:32-p272:64:64-i64:64-i128:128-f80:128-n8:16:32:64-S128"
target triple = "x86_64-pc-linux-gnu"

@.str = private unnamed_addr constant [19 x i8] c"help-pmix-util.txt\00", align 1
@.str.1 = private unnamed_addr constant [13 x i8] c"mkdir-failed\00", align 1
@path_sep = internal constant [2 x i8] c"/\00", align 1

; Function Attrs: nounwind uwtable
define i32 @pmix_os_dirpath_create(ptr noundef %0, i32 noundef %1) #0 {
  %3 = alloca i32, align 4
  %4 = alloca ptr, align 8
  %5 = alloca i32, align 4
  %6 = alloca ptr, align 8
  %7 = alloca ptr, align 8
  %8 = alloca i32, align 4
  %9 = alloca i32, align 4
  %10 = alloca i32, align 4
  %11 = alloca i32, align 4
  store ptr %0, ptr %4, align 8, !tbaa !3
  store i32 %1, ptr %5, align 4, !tbaa !8
  call void @llvm.lifetime.start.p0(i64 8, ptr %6) #7
  call void @llvm.lifetime.start.p0(i64 8, ptr %7) #7
  call void @llvm.lifetime.start.p0(i64 4, ptr %8) #7
  call void @llvm.lifetime.start.p0(i64 4, ptr %9) #7
  call void @llvm.lifetime.start.p0(i64 4, ptr %10) #7
  %12 = load ptr, ptr %4, align 8, !tbaa !3
  %13 = icmp eq ptr null, %12
  br i1 %13, label %14, label %15

14:                                               ; preds = %2
  store i32 -27, ptr %3, align 4
  store i32 1, ptr %11, align 4
  br label %123

15:                                               ; preds = %2
  %16 = load ptr, ptr %4, align 8, !tbaa !3
  %17 = load i32, ptr %5, align 4, !tbaa !8
  %18 = call i32 @mkdir(ptr noundef %16, i32 noundef %17) #7
  %19 = icmp eq i32 0, %18
  br i1 %19, label %20, label %21

20:                                               ; preds = %15
  store i32 0, ptr %3, align 4
  store i32 1, ptr %11, align 4
  br label %123

21:                                               ; preds = %15
  %22 = call ptr @__errno_location() #8
  %23 = load i32, ptr %22, align 4, !tbaa !8
  store i32 %23, ptr %10, align 4, !tbaa !8
  %24 = load i32, ptr %10, align 4, !tbaa !8
  %25 = icmp eq i32 17, %24
  br i1 %25, label %26, label %30

26:                                               ; preds = %21
  %27 = load ptr, ptr %4, align 8, !tbaa !3
  %28 = load i32, ptr %5, align 4, !tbaa !8
  %29 = call i32 @chmod(ptr noundef %27, i32 noundef %28) #7
  br label %39

30:                                               ; preds = %21
  %31 = load i32, ptr %10, align 4, !tbaa !8
  %32 = icmp ne i32 2, %31
  br i1 %32, label %33, label %38

33:                                               ; preds = %30
  %34 = load ptr, ptr %4, align 8, !tbaa !3
  %35 = load i32, ptr %10, align 4, !tbaa !8
  %36 = call ptr @strerror(i32 noundef %35) #7
  %37 = call i32 (ptr, ptr, i32, ...) @pmix_show_help(ptr noundef @.str, ptr noundef @.str.1, i32 noundef 1, ptr noundef %34, ptr noundef %36)
  store i32 -2, ptr %3, align 4
  store i32 1, ptr %11, align 4
  br label %123

38:                                               ; preds = %30
  br label %39

39:                                               ; preds = %38, %26
  %40 = load ptr, ptr %4, align 8, !tbaa !3
  %41 = load i8, ptr @path_sep, align 1, !tbaa !10
  %42 = sext i8 %41 to i32
  %43 = call ptr @PMIx_Argv_split(ptr noundef %40, i32 noundef %42)
  store ptr %43, ptr %6, align 8, !tbaa !11
  %44 = load ptr, ptr %4, align 8, !tbaa !3
  %45 = call i64 @strlen(ptr noundef %44) #9
  %46 = add i64 %45, 1
  %47 = call noalias ptr @malloc(i64 noundef %46) #10
  store ptr %47, ptr %7, align 8, !tbaa !3
  %48 = load ptr, ptr %7, align 8, !tbaa !3
  %49 = getelementptr inbounds i8, ptr %48, i64 0
  store i8 0, ptr %49, align 1, !tbaa !10
  %50 = load ptr, ptr %6, align 8, !tbaa !11
  %51 = call i32 @PMIx_Argv_count(ptr noundef %50)
  store i32 %51, ptr %9, align 4, !tbaa !8
  store i32 0, ptr %8, align 4, !tbaa !8
  br label %52

52:                                               ; preds = %117, %39
  %53 = load i32, ptr %8, align 4, !tbaa !8
  %54 = load i32, ptr %9, align 4, !tbaa !8
  %55 = icmp slt i32 %53, %54
  br i1 %55, label %56, label %120

56:                                               ; preds = %52
  %57 = load i32, ptr %8, align 4, !tbaa !8
  %58 = icmp eq i32 %57, 0
  br i1 %58, label %59, label %76

59:                                               ; preds = %56
  %60 = load ptr, ptr %4, align 8, !tbaa !3
  %61 = getelementptr inbounds i8, ptr %60, i64 0
  %62 = load i8, ptr %61, align 1, !tbaa !10
  %63 = sext i8 %62 to i32
  %64 = icmp eq i32 47, %63
  br i1 %64, label %65, label %68

65:                                               ; preds = %59
  %66 = load ptr, ptr %7, align 8, !tbaa !3
  %67 = call ptr @strcat(ptr noundef %66, ptr noundef @path_sep) #7
  br label %68

68:                                               ; preds = %65, %59
  %69 = load ptr, ptr %7, align 8, !tbaa !3
  %70 = load ptr, ptr %6, align 8, !tbaa !11
  %71 = load i32, ptr %8, align 4, !tbaa !8
  %72 = sext i32 %71 to i64
  %73 = getelementptr inbounds ptr, ptr %70, i64 %72
  %74 = load ptr, ptr %73, align 8, !tbaa !3
  %75 = call ptr @strcat(ptr noundef %69, ptr noundef %74) #7
  br label %98

76:                                               ; preds = %56
  %77 = load i8, ptr @path_sep, align 1, !tbaa !10
  %78 = sext i8 %77 to i32
  %79 = load ptr, ptr %7, align 8, !tbaa !3
  %80 = load ptr, ptr %7, align 8, !tbaa !3
  %81 = call i64 @strlen(ptr noundef %80) #9
  %82 = sub i64 %81, 1
  %83 = getelementptr inbounds nuw i8, ptr %79, i64 %82
  %84 = load i8, ptr %83, align 1, !tbaa !10
  %85 = sext i8 %84 to i32
  %86 = icmp ne i32 %78, %85
  br i1 %86, label %87, label %90

87:                                               ; preds = %76
  %88 = load ptr, ptr %7, align 8, !tbaa !3
  %89 = call ptr @strcat(ptr noundef %88, ptr noundef @path_sep) #7
  br label %90

90:                                               ; preds = %87, %76
  %91 = load ptr, ptr %7, align 8, !tbaa !3
  %92 = load ptr, ptr %6, align 8, !tbaa !11
  %93 = load i32, ptr %8, align 4, !tbaa !8
  %94 = sext i32 %93 to i64
  %95 = getelementptr inbounds ptr, ptr %92, i64 %94
  %96 = load ptr, ptr %95, align 8, !tbaa !3
  %97 = call ptr @strcat(ptr noundef %91, ptr noundef %96) #7
  br label %98

98:                                               ; preds = %90, %68
  %99 = load ptr, ptr %7, align 8, !tbaa !3
  %100 = load i32, ptr %5, align 4, !tbaa !8
  %101 = call i32 @mkdir(ptr noundef %99, i32 noundef %100) #7
  store i32 %101, ptr %10, align 4, !tbaa !8
  %102 = load i32, ptr %10, align 4, !tbaa !8
  %103 = icmp ne i32 0, %102
  br i1 %103, label %104, label %116

104:                                              ; preds = %98
  %105 = call ptr @__errno_location() #8
  %106 = load i32, ptr %105, align 4, !tbaa !8
  %107 = icmp ne i32 17, %106
  br i1 %107, label %108, label %116

108:                                              ; preds = %104
  %109 = load ptr, ptr %7, align 8, !tbaa !3
  %110 = call ptr @__errno_location() #8
  %111 = load i32, ptr %110, align 4, !tbaa !8
  %112 = call ptr @strerror(i32 noundef %111) #7
  %113 = call i32 (ptr, ptr, i32, ...) @pmix_show_help(ptr noundef @.str, ptr noundef @.str.1, i32 noundef 1, ptr noundef %109, ptr noundef %112)
  %114 = load ptr, ptr %6, align 8, !tbaa !11
  call void @PMIx_Argv_free(ptr noundef %114)
  %115 = load ptr, ptr %7, align 8, !tbaa !3
  call void @free(ptr noundef %115) #7
  store i32 -2, ptr %3, align 4
  store i32 1, ptr %11, align 4
  br label %123

116:                                              ; preds = %104, %98
  br label %117

117:                                              ; preds = %116
  %118 = load i32, ptr %8, align 4, !tbaa !8
  %119 = add nsw i32 %118, 1
  store i32 %119, ptr %8, align 4, !tbaa !8
  br label %52, !llvm.loop !13

120:                                              ; preds = %52
  %121 = load ptr, ptr %6, align 8, !tbaa !11
  call void @PMIx_Argv_free(ptr noundef %121)
  %122 = load ptr, ptr %7, align 8, !tbaa !3
  call void @free(ptr noundef %122) #7
  store i32 0, ptr %3, align 4
  store i32 1, ptr %11, align 4
  br label %123

123:                                              ; preds = %120, %108, %33, %20, %14
  call void @llvm.lifetime.end.p0(i64 4, ptr %10) #7
  call void @llvm.lifetime.end.p0(i64 4, ptr %9) #7
  call void @llvm.lifetime.end.p0(i64 4, ptr %8) #7
  call void @llvm.lifetime.end.p0(i64 8, ptr %7) #7
  call void @llvm.lifetime.end.p0(i64 8, ptr %6) #7
  %124 = load i32, ptr %3, align 4
  ret i32 %124
}